; Function Attrs: nounwind sspstrong uwtable
define dso_local void @job_txn_unref_locked(ptr noundef %0) local_unnamed_addr #0 {
  %.not = icmp eq ptr %0, null
  br i1 %.not, label %8, label %2

2:                                                ; preds = %1
  %3 = getelementptr inbounds nuw i8, ptr %0, i64 16
  %4 = load i32, ptr %3, align 8
  %5 = add i32 %4, -1
  store i32 %5, ptr %3, align 8
  %6 = icmp eq i32 %5, 0
  br i1 %6, label %7, label %8

7:                                                ; preds = %2
  tail call void @g_free(ptr noundef nonnull %0) #15
  br label %8

8:                                                ; preds = %7, %2, %1
  ret void
}